; Function Attrs: nounwind uwtable
define dso_local range(i32 0, 2) i32 @repo_has_object_file_with_flags(ptr noundef %0, ptr noundef %1, i32 noundef %2) local_unnamed_addr #1 {
  %4 = load ptr, ptr @startup_info, align 8, !tbaa !143
  %5 = load i32, ptr %4, align 8, !tbaa !145
  %.not = icmp eq i32 %5, 0
  br i1 %.not, label %10, label %6

6:                                                ; preds = %3
  %7 = tail call i32 @oid_object_info_extended(ptr noundef %0, ptr noundef %1, ptr noundef null, i32 noundef %2)
  %8 = icmp sgt i32 %7, -1
  %9 = zext i1 %8 to i32
  br label %10

10:                                               ; preds = %3, %6
  %.0 = phi i32 [ %9, %6 ], [ 0, %3 ]
  ret i32 %.0
}